; Function Attrs: mustprogress nounwind uwtable
define noundef nonnull align 8 dereferenceable(16) ptr @_ZN4LIEF5dwarf9ParameteraSEOS1_(ptr noundef nonnull returned align 8 dereferenceable(16) %0, ptr noundef nonnull align 8 captures(none) dereferenceable(16) %1) local_unnamed_addr #3 align 2 {
  %3 = getelementptr inbounds nuw i8, ptr %0, i64 8
  %4 = getelementptr inbounds nuw i8, ptr %1, i64 8
  %5 = load ptr, ptr %4, align 8, !tbaa !34
  store ptr null, ptr %4, align 8, !tbaa !34
  %6 = load ptr, ptr %3, align 8, !tbaa !34
  store ptr %5, ptr %3, align 8, !tbaa !34
  %.not.i.i.i.i = icmp eq ptr %6, null
  br i1 %.not.i.i.i.i, label %_ZNSt10unique_ptrIN4LIEF5dwarf7details9ParameterESt14default_deleteIS3_EEaSEOS6_.exit, label %_ZNKSt14default_deleteIN4LIEF5dwarf7details9ParameterEEclEPS3_.exit.i.i.i.i

_ZNKSt14default_deleteIN4LIEF5dwarf7details9ParameterEEclEPS3_.exit.i.i.i.i: ; preds = %2
  tail call void @_ZdlPvm(ptr noundef nonnull %6, i64 noundef 1) #24
  br label %_ZNSt10unique_ptrIN4LIEF5dwarf7details9ParameterESt14default_deleteIS3_EEaSEOS6_.exit

_ZNSt10unique_ptrIN4LIEF5dwarf7details9ParameterESt14default_deleteIS3_EEaSEOS6_.exit: ; preds = %2, %_ZNKSt14default_deleteIN4LIEF5dwarf7details9ParameterEEclEPS3_.exit.i.i.i.i
  ret ptr %0
}